; ModuleID = '50/569.c'
source_filename = "50/569.c"
target datalayout = "e-m:e-p270:32:32-p271:32:32-p272:64:64-i64:64-f80:128-n8:16:32:64-S128"
target triple = "x86_64-pc-linux-gnu"

@.str = private unnamed_addr constant [3 x i8] c"%d\00", align 1
@.str.1 = private unnamed_addr constant [4 x i8] c"%d\0A\00", align 1

; Function Attrs: noinline nounwind uwtable
define dso_local i32 @main() #0 {
  %1 = alloca i32, align 4
  %2 = alloca i32, align 4
  %3 = alloca i32, align 4
  %4 = alloca i32, align 4
  %5 = alloca [13 x i32], align 16
  %6 = alloca i32, align 4
  %7 = alloca i32, align 4
  store i32 0, i32* %1, align 4
  store i32 0, i32* %7, align 4
  %8 = call i32 (i8*, ...) @__isoc99_scanf(i8* getelementptr inbounds ([3 x i8], [3 x i8]* @.str, i64 0, i64 0), i32* %4)
  %9 = getelementptr inbounds [13 x i32], [13 x i32]* %5, i64 0, i64 1
  store i32 31, i32* %9, align 4
  %10 = getelementptr inbounds [13 x i32], [13 x i32]* %5, i64 0, i64 2
  store i32 28, i32* %10, align 8
  %11 = getelementptr inbounds [13 x i32], [13 x i32]* %5, i64 0, i64 3
  store i32 31, i32* %11, align 4
  %12 = getelementptr inbounds [13 x i32], [13 x i32]* %5, i64 0, i64 4
  store i32 30, i32* %12, align 16
  %13 = getelementptr inbounds [13 x i32], [13 x i32]* %5, i64 0, i64 5
  store i32 31, i32* %13, align 4
  %14 = getelementptr inbounds [13 x i32], [13 x i32]* %5, i64 0, i64 6
  store i32 30, i32* %14, align 8
  %15 = getelementptr inbounds [13 x i32], [13 x i32]* %5, i64 0, i64 7
  store i32 31, i32* %15, align 4
  %16 = getelementptr inbounds [13 x i32], [13 x i32]* %5, i64 0, i64 8
  store i32 31, i32* %16, align 16
  %17 = getelementptr inbounds [13 x i32], [13 x i32]* %5, i64 0, i64 9
  store i32 30, i32* %17, align 4
  %18 = getelementptr inbounds [13 x i32], [13 x i32]* %5, i64 0, i64 10
  store i32 31, i32* %18, align 8
  %19 = getelementptr inbounds [13 x i32], [13 x i32]* %5, i64 0, i64 11
  store i32 30, i32* %19, align 4
  %20 = getelementptr inbounds [13 x i32], [13 x i32]* %5, i64 0, i64 12
  store i32 31, i32* %20, align 16
  store i32 1, i32* %3, align 4
  br label %21

21:                                               ; preds = %55, %0
  %22 = load i32, i32* %3, align 4
  %23 = icmp slt i32 %22, 13
  br i1 %23, label %24, label %58

24:                                               ; preds = %21
  store i32 1, i32* %2, align 4
  br label %25

25:                                               ; preds = %45, %24
  %26 = load i32, i32* %2, align 4
  %27 = icmp slt i32 %26, 366
  br i1 %27, label %28, label %48

28:                                               ; preds = %25
  %29 = load i32, i32* %2, align 4
  %30 = load i32, i32* %4, align 4
  %31 = add nsw i32 %29, %30
  %32 = sub nsw i32 %31, 1
  %33 = srem i32 %32, 7
  store i32 %33, i32* %6, align 4
  %34 = load i32, i32* %2, align 4
  %35 = load i32, i32* %7, align 4
  %36 = sub nsw i32 %34, %35
  %37 = icmp eq i32 %36, 13
  br i1 %37, label %38, label %44

38:                                               ; preds = %28
  %39 = load i32, i32* %6, align 4
  %40 = icmp eq i32 %39, 5
  br i1 %40, label %41, label %44

41:                                               ; preds = %38
  %42 = load i32, i32* %3, align 4
  %43 = call i32 (i8*, ...) @printf(i8* getelementptr inbounds ([4 x i8], [4 x i8]* @.str.1, i64 0, i64 0), i32 %42)
  br label %44

44:                                               ; preds = %41, %38, %28
  br label %45

45:                                               ; preds = %44
  %46 = load i32, i32* %2, align 4
  %47 = add nsw i32 %46, 1
  store i32 %47, i32* %2, align 4
  br label %25

48:                                               ; preds = %25
  %49 = load i32, i32* %3, align 4
  %50 = sext i32 %49 to i64
  %51 = getelementptr inbounds [13 x i32], [13 x i32]* %5, i64 0, i64 %50
  %52 = load i32, i32* %51, align 4
  %53 = load i32, i32* %7, align 4
  %54 = add nsw i32 %53, %52
  store i32 %54, i32* %7, align 4
  br label %55

55:                                               ; preds = %48
  %56 = load i32, i32* %3, align 4
  %57 = add nsw i32 %56, 1
  store i32 %57, i32* %3, align 4
  br label %21

58:                                               ; preds = %21
  ret i32 0
}

declare dso_local i32 @__isoc99_scanf(i8*, ...) #1

declare dso_local i32 @printf(i8*, ...) #1


!llvm.module.flags = !{!0}
!llvm.ident = !{!1}

!0 = !{i32 1, !"wchar_size", i32 4}
!1 = !{!"clang version 10.0.0-4ubuntu1 "}
